; ModuleID = 'source-C-CXX/24/375.cpp'
source_filename = "source-C-CXX/24/375.cpp"
target datalayout = "e-m:e-p270:32:32-p271:32:32-p272:64:64-i64:64-f80:128-n8:16:32:64-S128"
target triple = "x86_64-pc-linux-gnu"

%"class.std::ios_base::Init" = type { i8 }
%"class.std::basic_istream" = type { i32 (...)**, i64, %"class.std::basic_ios" }
%"class.std::basic_ios" = type { %"class.std::ios_base", %"class.std::basic_ostream"*, i8, i8, %"class.std::basic_streambuf"*, %"class.std::ctype"*, %"class.std::num_put"*, %"class.std::num_get"* }
%"class.std::ios_base" = type { i32 (...)**, i64, i64, i32, i32, i32, %"struct.std::ios_base::_Callback_list"*, %"struct.std::ios_base::_Words", [8 x %"struct.std::ios_base::_Words"], i32, %"struct.std::ios_base::_Words"*, %"class.std::locale" }
%"struct.std::ios_base::_Callback_list" = type { %"struct.std::ios_base::_Callback_list"*, void (i32, %"class.std::ios_base"*, i32)*, i32, i32 }
%"struct.std::ios_base::_Words" = type { i8*, i64 }
%"class.std::locale" = type { %"class.std::locale::_Impl"* }
%"class.std::locale::_Impl" = type { i32, %"class.std::locale::facet"**, i64, %"class.std::locale::facet"**, i8** }
%"class.std::locale::facet" = type <{ i32 (...)**, i32, [4 x i8] }>
%"class.std::basic_ostream" = type { i32 (...)**, %"class.std::basic_ios" }
%"class.std::basic_streambuf" = type { i32 (...)**, i8*, i8*, i8*, i8*, i8*, i8*, %"class.std::locale" }
%"class.std::ctype" = type <{ %"class.std::locale::facet.base", [4 x i8], %struct.__locale_struct*, i8, [7 x i8], i32*, i32*, i16*, i8, [256 x i8], [256 x i8], i8, [6 x i8] }>
%"class.std::locale::facet.base" = type <{ i32 (...)**, i32 }>
%struct.__locale_struct = type { [13 x %struct.__locale_data*], i16*, i32*, i32*, [13 x i8*] }
%struct.__locale_data = type opaque
%"class.std::num_put" = type { %"class.std::locale::facet.base", [4 x i8] }
%"class.std::num_get" = type { %"class.std::locale::facet.base", [4 x i8] }

@_ZStL8__ioinit = internal global %"class.std::ios_base::Init" zeroinitializer, align 1
@__dso_handle = external hidden global i8
@_ZSt3cin = external global %"class.std::basic_istream", align 8
@_ZSt4cout = external global %"class.std::basic_ostream", align 8
@llvm.global_ctors = appending global [1 x { i32, void ()*, i8* }] [{ i32, void ()*, i8* } { i32 65535, void ()* @_GLOBAL__sub_I_375.cpp, i8* null }]

declare void @_ZNSt8ios_base4InitC1Ev(%"class.std::ios_base::Init"* nonnull align 1 dereferenceable(1)) unnamed_addr #0

; Function Attrs: nounwind
declare void @_ZNSt8ios_base4InitD1Ev(%"class.std::ios_base::Init"* nonnull align 1 dereferenceable(1)) unnamed_addr #1

; Function Attrs: nofree nounwind
declare i32 @__cxa_atexit(void (i8*)*, i8*, i8*) local_unnamed_addr #2

; Function Attrs: mustprogress norecurse sspstrong uwtable
define dso_local i32 @main() local_unnamed_addr #3 {
  %1 = alloca [101 x [100 x i32]], align 16
  %2 = alloca i32, align 4
  %3 = bitcast [101 x [100 x i32]]* %1 to i8*
  call void @llvm.lifetime.start.p0i8(i64 40400, i8* nonnull %3) #7
  %4 = bitcast i32* %2 to i8*
  call void @llvm.lifetime.start.p0i8(i64 4, i8* nonnull %4) #7
  br label %5

5:                                                ; preds = %0, %12
  %6 = phi i64 [ 0, %0 ], [ %13, %12 ]
  br label %7

7:                                                ; preds = %105, %5
  %8 = phi i64 [ 0, %5 ], [ %111, %105 ]
  %9 = getelementptr inbounds [101 x [100 x i32]], [101 x [100 x i32]]* %1, i64 0, i64 %8, i64 %6
  store i32 0, i32* %9, align 4, !tbaa !5
  %10 = or i64 %8, 1
  %11 = icmp eq i64 %10, 101
  br i1 %11, label %12, label %105, !llvm.loop !9

12:                                               ; preds = %7
  %13 = add nuw nsw i64 %6, 1
  %14 = icmp eq i64 %13, 100
  br i1 %14, label %15, label %5, !llvm.loop !11

15:                                               ; preds = %12
  %16 = getelementptr inbounds [101 x [100 x i32]], [101 x [100 x i32]]* %1, i64 0, i64 0, i64 0
  store i32 1, i32* %16, align 16, !tbaa !5
  %17 = call nonnull align 8 dereferenceable(16) %"class.std::basic_istream"* @_ZNSirsERi(%"class.std::basic_istream"* nonnull align 8 dereferenceable(16) @_ZSt3cin, i32* nonnull align 4 dereferenceable(4) %2)
  %18 = load i32, i32* %2, align 4, !tbaa !5
  %19 = icmp slt i32 %18, 1
  br i1 %19, label %26, label %20

20:                                               ; preds = %15
  %21 = add nuw i32 %18, 1
  %22 = zext i32 %21 to i64
  br label %23

23:                                               ; preds = %20, %49
  %24 = phi i64 [ 1, %20 ], [ %50, %49 ]
  %25 = add nsw i64 %24, -1
  br label %28

26:                                               ; preds = %49, %15
  %27 = sext i32 %18 to i64
  br label %52

28:                                               ; preds = %23, %46
  %29 = phi i64 [ 0, %23 ], [ %47, %46 ]
  %30 = getelementptr inbounds [101 x [100 x i32]], [101 x [100 x i32]]* %1, i64 0, i64 %25, i64 %29
  %31 = load i32, i32* %30, align 4, !tbaa !5
  %32 = shl nsw i32 %31, 1
  %33 = getelementptr inbounds [101 x [100 x i32]], [101 x [100 x i32]]* %1, i64 0, i64 %24, i64 %29
  %34 = load i32, i32* %33, align 4, !tbaa !5
  %35 = add nsw i32 %34, %32
  store i32 %35, i32* %33, align 4, !tbaa !5
  %36 = icmp sgt i32 %35, 9
  br i1 %36, label %39, label %37

37:                                               ; preds = %28
  %38 = add nuw nsw i64 %29, 1
  br label %46

39:                                               ; preds = %28
  %40 = udiv i32 %35, 10
  %41 = add nuw nsw i64 %29, 1
  %42 = getelementptr inbounds [101 x [100 x i32]], [101 x [100 x i32]]* %1, i64 0, i64 %24, i64 %41
  %43 = load i32, i32* %42, align 4, !tbaa !5
  %44 = add nsw i32 %43, %40
  store i32 %44, i32* %42, align 4, !tbaa !5
  %45 = urem i32 %35, 10
  store i32 %45, i32* %33, align 4, !tbaa !5
  br label %46

46:                                               ; preds = %37, %39
  %47 = phi i64 [ %38, %37 ], [ %41, %39 ]
  %48 = icmp eq i64 %47, 90
  br i1 %48, label %49, label %28, !llvm.loop !12

49:                                               ; preds = %46
  %50 = add nuw nsw i64 %24, 1
  %51 = icmp eq i64 %50, %22
  br i1 %51, label %26, label %23, !llvm.loop !13

52:                                               ; preds = %52, %26
  %53 = phi i64 [ %57, %52 ], [ 90, %26 ]
  %54 = getelementptr inbounds [101 x [100 x i32]], [101 x [100 x i32]]* %1, i64 0, i64 %27, i64 %53
  %55 = load i32, i32* %54, align 4, !tbaa !5
  %56 = icmp eq i32 %55, 0
  %57 = add i64 %53, -1
  br i1 %56, label %52, label %58, !llvm.loop !14

58:                                               ; preds = %52
  %59 = trunc i64 %53 to i32
  %60 = icmp sgt i32 %59, -1
  br i1 %60, label %61, label %77

61:                                               ; preds = %58
  %62 = and i64 %53, 4294967295
  %63 = sext i32 %18 to i64
  %64 = getelementptr inbounds [101 x [100 x i32]], [101 x [100 x i32]]* %1, i64 0, i64 %63, i64 %62
  %65 = load i32, i32* %64, align 4, !tbaa !5
  %66 = call nonnull align 8 dereferenceable(8) %"class.std::basic_ostream"* @_ZNSolsEi(%"class.std::basic_ostream"* nonnull align 8 dereferenceable(8) @_ZSt4cout, i32 %65)
  %67 = icmp eq i64 %62, 0
  br i1 %67, label %77, label %68, !llvm.loop !15

68:                                               ; preds = %61, %68
  %69 = phi i64 [ %70, %68 ], [ %62, %61 ]
  %70 = add nsw i64 %69, -1
  %71 = load i32, i32* %2, align 4, !tbaa !5
  %72 = sext i32 %71 to i64
  %73 = getelementptr inbounds [101 x [100 x i32]], [101 x [100 x i32]]* %1, i64 0, i64 %72, i64 %70
  %74 = load i32, i32* %73, align 4, !tbaa !5
  %75 = call nonnull align 8 dereferenceable(8) %"class.std::basic_ostream"* @_ZNSolsEi(%"class.std::basic_ostream"* nonnull align 8 dereferenceable(8) @_ZSt4cout, i32 %74)
  %76 = icmp sgt i64 %69, 1
  br i1 %76, label %68, label %77, !llvm.loop !15

77:                                               ; preds = %68, %61, %58
  %78 = load i8*, i8** bitcast (%"class.std::basic_ostream"* @_ZSt4cout to i8**), align 8, !tbaa !16
  %79 = getelementptr i8, i8* %78, i64 -24
  %80 = bitcast i8* %79 to i64*
  %81 = load i64, i64* %80, align 8
  %82 = add nsw i64 %81, 240
  %83 = getelementptr inbounds i8, i8* bitcast (%"class.std::basic_ostream"* @_ZSt4cout to i8*), i64 %82
  %84 = bitcast i8* %83 to %"class.std::ctype"**
  %85 = load %"class.std::ctype"*, %"class.std::ctype"** %84, align 8, !tbaa !18
  %86 = icmp eq %"class.std::ctype"* %85, null
  br i1 %86, label %87, label %88

87:                                               ; preds = %77
  call void @_ZSt16__throw_bad_castv() #8
  unreachable

88:                                               ; preds = %77
  %89 = getelementptr inbounds %"class.std::ctype", %"class.std::ctype"* %85, i64 0, i32 8
  %90 = load i8, i8* %89, align 8, !tbaa !22
  %91 = icmp eq i8 %90, 0
  br i1 %91, label %95, label %92

92:                                               ; preds = %88
  %93 = getelementptr inbounds %"class.std::ctype", %"class.std::ctype"* %85, i64 0, i32 9, i64 10
  %94 = load i8, i8* %93, align 1, !tbaa !24
  br label %101

95:                                               ; preds = %88
  call void @_ZNKSt5ctypeIcE13_M_widen_initEv(%"class.std::ctype"* nonnull align 8 dereferenceable(570) %85)
  %96 = bitcast %"class.std::ctype"* %85 to i8 (%"class.std::ctype"*, i8)***
  %97 = load i8 (%"class.std::ctype"*, i8)**, i8 (%"class.std::ctype"*, i8)*** %96, align 8, !tbaa !16
  %98 = getelementptr inbounds i8 (%"class.std::ctype"*, i8)*, i8 (%"class.std::ctype"*, i8)** %97, i64 6
  %99 = load i8 (%"class.std::ctype"*, i8)*, i8 (%"class.std::ctype"*, i8)** %98, align 8
  %100 = call signext i8 %99(%"class.std::ctype"* nonnull align 8 dereferenceable(570) %85, i8 signext 10)
  br label %101

101:                                              ; preds = %92, %95
  %102 = phi i8 [ %94, %92 ], [ %100, %95 ]
  %103 = call nonnull align 8 dereferenceable(8) %"class.std::basic_ostream"* @_ZNSo3putEc(%"class.std::basic_ostream"* nonnull align 8 dereferenceable(8) @_ZSt4cout, i8 signext %102)
  %104 = call nonnull align 8 dereferenceable(8) %"class.std::basic_ostream"* @_ZNSo5flushEv(%"class.std::basic_ostream"* nonnull align 8 dereferenceable(8) %103)
  call void @llvm.lifetime.end.p0i8(i64 4, i8* nonnull %4) #7
  call void @llvm.lifetime.end.p0i8(i64 40400, i8* nonnull %3) #7
  ret i32 0

105:                                              ; preds = %7
  %106 = getelementptr inbounds [101 x [100 x i32]], [101 x [100 x i32]]* %1, i64 0, i64 %10, i64 %6
  store i32 0, i32* %106, align 4, !tbaa !5
  %107 = or i64 %8, 2
  %108 = getelementptr inbounds [101 x [100 x i32]], [101 x [100 x i32]]* %1, i64 0, i64 %107, i64 %6
  store i32 0, i32* %108, align 4, !tbaa !5
  %109 = or i64 %8, 3
  %110 = getelementptr inbounds [101 x [100 x i32]], [101 x [100 x i32]]* %1, i64 0, i64 %109, i64 %6
  store i32 0, i32* %110, align 4, !tbaa !5
  %111 = add nuw nsw i64 %8, 4
  br label %7
}

; Function Attrs: argmemonly mustprogress nofree nosync nounwind willreturn
declare void @llvm.lifetime.start.p0i8(i64 immarg, i8* nocapture) #4

declare nonnull align 8 dereferenceable(16) %"class.std::basic_istream"* @_ZNSirsERi(%"class.std::basic_istream"* nonnull align 8 dereferenceable(16), i32* nonnull align 4 dereferenceable(4)) local_unnamed_addr #0

declare nonnull align 8 dereferenceable(8) %"class.std::basic_ostream"* @_ZNSolsEi(%"class.std::basic_ostream"* nonnull align 8 dereferenceable(8), i32) local_unnamed_addr #0

; Function Attrs: argmemonly mustprogress nofree nosync nounwind willreturn
declare void @llvm.lifetime.end.p0i8(i64 immarg, i8* nocapture) #4

declare nonnull align 8 dereferenceable(8) %"class.std::basic_ostream"* @_ZNSo3putEc(%"class.std::basic_ostream"* nonnull align 8 dereferenceable(8), i8 signext) local_unnamed_addr #0

declare nonnull align 8 dereferenceable(8) %"class.std::basic_ostream"* @_ZNSo5flushEv(%"class.std::basic_ostream"* nonnull align 8 dereferenceable(8)) local_unnamed_addr #0

; Function Attrs: noreturn
declare void @_ZSt16__throw_bad_castv() local_unnamed_addr #5

declare void @_ZNKSt5ctypeIcE13_M_widen_initEv(%"class.std::ctype"* nonnull align 8 dereferenceable(570)) local_unnamed_addr #0

; Function Attrs: sspstrong uwtable
define internal void @_GLOBAL__sub_I_375.cpp() #6 section ".text.startup" {
  tail call void @_ZNSt8ios_base4InitC1Ev(%"class.std::ios_base::Init"* nonnull align 1 dereferenceable(1) @_ZStL8__ioinit)
  %1 = tail call i32 @__cxa_atexit(void (i8*)* bitcast (void (%"class.std::ios_base::Init"*)* @_ZNSt8ios_base4InitD1Ev to void (i8*)*), i8* getelementptr inbounds (%"class.std::ios_base::Init", %"class.std::ios_base::Init"* @_ZStL8__ioinit, i64 0, i32 0), i8* nonnull @__dso_handle) #7
  ret void
}


!llvm.module.flags = !{!0, !1, !2, !3}
!llvm.ident = !{!4}

!0 = !{i32 1, !"wchar_size", i32 4}
!1 = !{i32 7, !"PIC Level", i32 2}
!2 = !{i32 7, !"PIE Level", i32 2}
!3 = !{i32 7, !"uwtable", i32 1}
!4 = !{!"clang version 13.0.0"}
!5 = !{!6, !6, i64 0}
!6 = !{!"int", !7, i64 0}
!7 = !{!"omnipotent char", !8, i64 0}
!8 = !{!"Simple C++ TBAA"}
!9 = distinct !{!9, !10}
!10 = !{!"llvm.loop.mustprogress"}
!11 = distinct !{!11, !10}
!12 = distinct !{!12, !10}
!13 = distinct !{!13, !10}
!14 = distinct !{!14, !10}
!15 = distinct !{!15, !10}
!16 = !{!17, !17, i64 0}
!17 = !{!"vtable pointer", !8, i64 0}
!18 = !{!19, !20, i64 240}
!19 = !{!"_ZTSSt9basic_iosIcSt11char_traitsIcEE", !20, i64 216, !7, i64 224, !21, i64 225, !20, i64 232, !20, i64 240, !20, i64 248, !20, i64 256}
!20 = !{!"any pointer", !7, i64 0}
!21 = !{!"bool", !7, i64 0}
!22 = !{!23, !7, i64 56}
!23 = !{!"_ZTSSt5ctypeIcE", !20, i64 16, !21, i64 24, !20, i64 32, !20, i64 40, !20, i64 48, !7, i64 56, !7, i64 57, !7, i64 313, !7, i64 569}
!24 = !{!7, !7, i64 0}
